target datalayout = "e-m:e-p270:32:32-p271:32:32-p272:64:64-i64:64-i128:128-f80:128-n8:16:32:64-S128"
target triple = "x86_64-pc-linux-gnu"

%"class.boost::core::basic_string_view" = type { ptr, i64 }
%"class.boost::urls::detail::fnv_1a" = type { i64 }

; Function Attrs: mustprogress nounwind uwtable
define linkonce_odr hidden noundef signext i8 @_ZN5boost4urls7grammar6detail8to_lowerEc(i8 noundef signext %0) #2 comdat {
  %2 = alloca i8, align 1
  store i8 %0, ptr %2, align 1, !tbaa !7
  %3 = load i8, ptr %2, align 1, !tbaa !7
  %4 = sext i8 %3 to i32
  %5 = icmp sge i32 %4, 65
  br i1 %5, label %6, label %15

6:                                                ; preds = %1
  %7 = load i8, ptr %2, align 1, !tbaa !7
  %8 = sext i8 %7 to i32
  %9 = icmp sle i32 %8, 90
  br i1 %9, label %10, label %15

10:                                               ; preds = %6
  %11 = load i8, ptr %2, align 1, !tbaa !7
  %12 = sext i8 %11 to i32
  %13 = add nsw i32 %12, 97
  %14 = sub nsw i32 %13, 65
  br label %18

15:                                               ; preds = %6, %1
  %16 = load i8, ptr %2, align 1, !tbaa !7
  %17 = sext i8 %16 to i32
  br label %18

18:                                               ; preds = %15, %10
  %19 = phi i32 [ %14, %10 ], [ %17, %15 ]
  %20 = trunc i32 %19 to i8
  ret i8 %20
}

; Function Attrs: mustprogress nounwind uwtable
define linkonce_odr hidden void @_ZN5boost4urls6detail6fnv_1a3putEc(ptr noundef nonnull align 8 dereferenceable(8) %0, i8 noundef signext %1) #2 comdat align 2 {
  %3 = alloca ptr, align 8
  %4 = alloca i8, align 1
  store ptr %0, ptr %3, align 8, !tbaa !3
  store i8 %1, ptr %4, align 1, !tbaa !7
  %5 = load ptr, ptr %3, align 8
  %6 = load i8, ptr %4, align 1, !tbaa !7
  %7 = sext i8 %6 to i64
  %8 = getelementptr inbounds nuw %"class.boost::urls::detail::fnv_1a", ptr %5, i32 0, i32 0
  %9 = load i64, ptr %8, align 8, !tbaa !17
  %10 = xor i64 %9, %7
  store i64 %10, ptr %8, align 8, !tbaa !17
  %11 = getelementptr inbounds nuw %"class.boost::urls::detail::fnv_1a", ptr %5, i32 0, i32 0
  %12 = load i64, ptr %11, align 8, !tbaa !17
  %13 = mul i64 %12, 1099511628211
  store i64 %13, ptr %11, align 8, !tbaa !17
  ret void
}

; Function Attrs: mustprogress nounwind uwtable
define linkonce_odr hidden noundef signext i8 @_ZN5boost4urls7grammar8to_lowerEc(i8 noundef signext %0) #2 comdat {
  %2 = alloca i8, align 1
  store i8 %0, ptr %2, align 1, !tbaa !7
  %3 = load i8, ptr %2, align 1, !tbaa !7
  %4 = call noundef signext i8 @_ZN5boost4urls7grammar6detail8to_lowerEc(i8 noundef signext %3) #16
  ret i8 %4
}

; Function Attrs: mustprogress nounwind uwtable
define linkonce_odr hidden noundef ptr @_ZNK5boost4core17basic_string_viewIcE3endEv(ptr noundef nonnull align 8 dereferenceable(16) %0) #2 comdat align 2 {
  %2 = alloca ptr, align 8
  store ptr %0, ptr %2, align 8, !tbaa !3
  %3 = load ptr, ptr %2, align 8
  %4 = getelementptr inbounds nuw %"class.boost::core::basic_string_view", ptr %3, i32 0, i32 0
  %5 = load ptr, ptr %4, align 8, !tbaa !10
  %6 = getelementptr inbounds nuw %"class.boost::core::basic_string_view", ptr %3, i32 0, i32 1
  %7 = load i64, ptr %6, align 8, !tbaa !12
  %8 = getelementptr inbounds nuw i8, ptr %5, i64 %7
  ret ptr %8
}

; Function Attrs: mustprogress nounwind uwtable
define linkonce_odr hidden noundef ptr @_ZNK5boost4core17basic_string_viewIcE5beginEv(ptr noundef nonnull align 8 dereferenceable(16) %0) #2 comdat align 2 {
  %2 = alloca ptr, align 8
  store ptr %0, ptr %2, align 8, !tbaa !3
  %3 = load ptr, ptr %2, align 8
  %4 = getelementptr inbounds nuw %"class.boost::core::basic_string_view", ptr %3, i32 0, i32 0
  %5 = load ptr, ptr %4, align 8, !tbaa !10
  ret ptr %5
}

; Function Attrs: mustprogress nounwind uwtable
define hidden void @_ZN5boost4urls6detail9ci_digestENS_4core17basic_string_viewIcEERNS1_6fnv_1aE(ptr %0, i64 %1, ptr noundef nonnull align 8 dereferenceable(8) %2) #2 {
  %4 = alloca %"class.boost::core::basic_string_view", align 8
  %5 = alloca ptr, align 8
  %6 = alloca ptr, align 8
  %7 = alloca ptr, align 8
  %8 = alloca ptr, align 8
  %9 = alloca i8, align 1
  %10 = getelementptr inbounds nuw { ptr, i64 }, ptr %4, i32 0, i32 0
  store ptr %0, ptr %10, align 8
  %11 = getelementptr inbounds nuw { ptr, i64 }, ptr %4, i32 0, i32 1
  store i64 %1, ptr %11, align 8
  store ptr %2, ptr %5, align 8, !tbaa !3
  call void @llvm.lifetime.start.p0(i64 8, ptr %6) #16
  store ptr %4, ptr %6, align 8, !tbaa !3
  call void @llvm.lifetime.start.p0(i64 8, ptr %7) #16
  %12 = load ptr, ptr %6, align 8, !tbaa !3
  %13 = call noundef ptr @_ZNK5boost4core17basic_string_viewIcE5beginEv(ptr noundef nonnull align 8 dereferenceable(16) %12) #16
  store ptr %13, ptr %7, align 8, !tbaa !3
  call void @llvm.lifetime.start.p0(i64 8, ptr %8) #16
  %14 = load ptr, ptr %6, align 8, !tbaa !3
  %15 = call noundef ptr @_ZNK5boost4core17basic_string_viewIcE3endEv(ptr noundef nonnull align 8 dereferenceable(16) %14) #16
  store ptr %15, ptr %8, align 8, !tbaa !3
  br label %16

16:                                               ; preds = %28, %3
  %17 = load ptr, ptr %7, align 8, !tbaa !3
  %18 = load ptr, ptr %8, align 8, !tbaa !3
  %19 = icmp ne ptr %17, %18
  br i1 %19, label %21, label %20

20:                                               ; preds = %16
  call void @llvm.lifetime.end.p0(i64 8, ptr %8) #16
  call void @llvm.lifetime.end.p0(i64 8, ptr %7) #16
  call void @llvm.lifetime.end.p0(i64 8, ptr %6) #16
  br label %31

21:                                               ; preds = %16
  call void @llvm.lifetime.start.p0(i64 1, ptr %9) #16
  %22 = load ptr, ptr %7, align 8, !tbaa !3
  %23 = load i8, ptr %22, align 1, !tbaa !7
  store i8 %23, ptr %9, align 1, !tbaa !7
  %24 = load i8, ptr %9, align 1, !tbaa !7
  %25 = call noundef signext i8 @_ZN5boost4urls7grammar8to_lowerEc(i8 noundef signext %24) #16
  store i8 %25, ptr %9, align 1, !tbaa !7
  %26 = load ptr, ptr %5, align 8, !tbaa !3
  %27 = load i8, ptr %9, align 1, !tbaa !7
  call void @_ZN5boost4urls6detail6fnv_1a3putEc(ptr noundef nonnull align 8 dereferenceable(8) %26, i8 noundef signext %27) #16
  call void @llvm.lifetime.end.p0(i64 1, ptr %9) #16
  br label %28

28:                                               ; preds = %21
  %29 = load ptr, ptr %7, align 8, !tbaa !3
  %30 = getelementptr inbounds nuw i8, ptr %29, i32 1
  store ptr %30, ptr %7, align 8, !tbaa !3
  br label %16

31:                                               ; preds = %20
  ret void
}