; Function Attrs: mustprogress nofree norecurse nosync nounwind memory(argmem: readwrite) uwtable
define hidden void @_ZN5boost4urls6detail9ci_digestENS_4core17basic_string_viewIcEERNS1_6fnv_1aE(ptr readonly %0, i64 %1, ptr nocapture noundef nonnull align 8 dereferenceable(8) %2) local_unnamed_addr #7 {
  %4 = getelementptr inbounds nuw i8, ptr %0, i64 %1
  %.not9 = icmp eq i64 %1, 0
  br i1 %.not9, label %._crit_edge, label %.lr.ph.preheader

.lr.ph.preheader:                                 ; preds = %3
  %.promoted = load i64, ptr %2, align 8, !tbaa !14
  br label %.lr.ph

._crit_edge:                                      ; preds = %.lr.ph, %3
  ret void

.lr.ph:                                           ; preds = %.lr.ph.preheader, %.lr.ph
  %.010 = phi ptr [ %13, %.lr.ph ], [ %0, %.lr.ph.preheader ]
  %5 = phi i64 [ %12, %.lr.ph ], [ %.promoted, %.lr.ph.preheader ]
  %6 = load i8, ptr %.010, align 1, !tbaa !9
  %7 = add i8 %6, -65
  %or.cond.i.i = icmp ult i8 %7, 26
  %8 = add nuw nsw i8 %6, 32
  %9 = select i1 %or.cond.i.i, i8 %8, i8 %6
  %10 = sext i8 %9 to i64
  %11 = xor i64 %5, %10
  %12 = mul i64 %11, 1099511628211
  store i64 %12, ptr %2, align 8, !tbaa !14
  %13 = getelementptr inbounds nuw i8, ptr %.010, i64 1
  %.not = icmp eq ptr %13, %4
  br i1 %.not, label %._crit_edge, label %.lr.ph
}